target datalayout = "e-m:e-p270:32:32-p271:32:32-p272:64:64-i64:64-i128:128-f80:128-n8:16:32:64-S128"
target triple = "x86_64-pc-linux-gnu"

%struct.H5VL_connector_prop_t = type { i64, ptr }

@H5VL_def_conn_s = internal global %struct.H5VL_connector_prop_t { i64 -1, ptr null }, align 8
@H5P_LST_FILE_ACCESS_ID_g = external global i64, align 8

; Function Attrs: nounwind uwtable
define void @H5VL__is_default_conn(i64 noundef %0, i64 noundef %1, ptr noundef %2) #0 {
  %4 = alloca i64, align 8
  %5 = alloca i64, align 8
  %6 = alloca ptr, align 8
  store i64 %0, ptr %4, align 8
  store i64 %1, ptr %5, align 8
  store ptr %2, ptr %6, align 8
  %7 = load i64, ptr @H5VL_def_conn_s, align 8
  %8 = call i64 @H5VL_native_register()
  %9 = icmp eq i64 %7, %8
  br i1 %9, label %10, label %20

10:                                               ; preds = %3
  %11 = load i64, ptr @H5P_LST_FILE_ACCESS_ID_g, align 8
  %12 = load i64, ptr %4, align 8
  %13 = icmp eq i64 %11, %12
  br i1 %13, label %18, label %14

14:                                               ; preds = %10
  %15 = load i64, ptr %5, align 8
  %16 = call i64 @H5VL_native_register()
  %17 = icmp eq i64 %15, %16
  br label %18

18:                                               ; preds = %14, %10
  %19 = phi i1 [ true, %10 ], [ %17, %14 ]
  br label %20

20:                                               ; preds = %18, %3
  %21 = phi i1 [ false, %3 ], [ %19, %18 ]
  %22 = load ptr, ptr %6, align 8
  %23 = zext i1 %21 to i8
  store i8 %23, ptr %22, align 1
  ret void
}