; Function Attrs: nounwind uwtable
define void @H5VL__is_default_conn(i64 noundef %0, i64 noundef %1, ptr nocapture noundef writeonly %2) local_unnamed_addr #0 {
  %4 = load i64, ptr @H5VL_def_conn_s, align 8
  %5 = tail call i64 @H5VL_native_register() #10
  %6 = icmp eq i64 %4, %5
  br i1 %6, label %7, label %14

7:                                                ; preds = %3
  %8 = load i64, ptr @H5P_LST_FILE_ACCESS_ID_g, align 8
  %9 = icmp eq i64 %8, %0
  br i1 %9, label %14, label %10

10:                                               ; preds = %7
  %11 = tail call i64 @H5VL_native_register() #10
  %12 = icmp eq i64 %11, %1
  %13 = zext i1 %12 to i8
  br label %14

14:                                               ; preds = %7, %10, %3
  %15 = phi i8 [ 0, %3 ], [ 1, %7 ], [ %13, %10 ]
  store i8 %15, ptr %2, align 1
  ret void
}